target datalayout = "e-m:e-p270:32:32-p271:32:32-p272:64:64-i64:64-i128:128-f80:128-n8:16:32:64-S128"
target triple = "x86_64-pc-linux-gnu"

%struct._btatt_data_t = type { ptr, i8, i32 }

@hf_gatt_microbit_accelerometer_data = internal global i32 0, align 4
@hf_gatt_microbit_accelerometer_x = internal global i32 0, align 4
@hf_gatt_microbit_accelerometer_y = internal global i32 0, align 4
@hf_gatt_microbit_accelerometer_z = internal global i32 0, align 4
@ett_btgatt_microbit_accelerometer = internal global i32 0, align 4
@.str.3290 = private unnamed_addr constant [23 x i8] c" (X: %f, Y: %f, Z: %f)\00", align 1

; Function Attrs: nounwind null_pointer_is_valid sspstrong uwtable
define internal zeroext i1 @is_readable_request(i8 noundef zeroext %0) #1 {
  %2 = alloca i8, align 1
  store i8 %0, ptr %2, align 1
  %3 = load i8, ptr %2, align 1
  %4 = zext i8 %3 to i32
  %5 = icmp eq i32 %4, 10
  br i1 %5, label %18, label %6

6:                                                ; preds = %1
  %7 = load i8, ptr %2, align 1
  %8 = zext i8 %7 to i32
  %9 = icmp eq i32 %8, 12
  br i1 %9, label %18, label %10

10:                                               ; preds = %6
  %11 = load i8, ptr %2, align 1
  %12 = zext i8 %11 to i32
  %13 = icmp eq i32 %12, 8
  br i1 %13, label %18, label %14

14:                                               ; preds = %10
  %15 = load i8, ptr %2, align 1
  %16 = zext i8 %15 to i32
  %17 = icmp eq i32 %16, 14
  br label %18

18:                                               ; preds = %14, %10, %6, %1
  %19 = phi i1 [ true, %10 ], [ true, %6 ], [ true, %1 ], [ %17, %14 ]
  ret i1 %19
}

; Function Attrs: null_pointer_is_valid sspstrong uwtable
define zeroext i1 @bluetooth_gatt_has_no_parameter(i8 noundef zeroext %0) #0 {
  %2 = alloca i8, align 1
  store i8 %0, ptr %2, align 1
  %3 = load i8, ptr %2, align 1
  %4 = call zeroext i1 @is_readable_request(i8 noundef zeroext %3)
  br i1 %4, label %13, label %5

5:                                                ; preds = %1
  %6 = load i8, ptr %2, align 1
  %7 = zext i8 %6 to i32
  %8 = icmp eq i32 %7, 19
  br i1 %8, label %13, label %9

9:                                                ; preds = %5
  %10 = load i8, ptr %2, align 1
  %11 = zext i8 %10 to i32
  %12 = icmp eq i32 %11, 30
  br label %13

13:                                               ; preds = %9, %5, %1
  %14 = phi i1 [ true, %5 ], [ true, %1 ], [ %12, %9 ]
  ret i1 %14
}

; Function Attrs: null_pointer_is_valid sspstrong uwtable
define internal i32 @dissect_btgatt_microbit_accelerometer_data(ptr noundef %0, ptr noundef %1, ptr noundef %2, ptr noundef %3) #0 {
  %5 = alloca i32, align 4
  %6 = alloca ptr, align 8
  %7 = alloca ptr, align 8
  %8 = alloca ptr, align 8
  %9 = alloca ptr, align 8
  %10 = alloca ptr, align 8
  %11 = alloca ptr, align 8
  %12 = alloca ptr, align 8
  %13 = alloca double, align 8
  %14 = alloca double, align 8
  %15 = alloca double, align 8
  %16 = alloca i32, align 4
  %17 = alloca i32, align 4
  store ptr %0, ptr %6, align 8
  store ptr %1, ptr %7, align 8
  store ptr %2, ptr %8, align 8
  store ptr %3, ptr %9, align 8
  call void @llvm.lifetime.start.p0(i64 8, ptr %10) #12
  %18 = load ptr, ptr %9, align 8
  store ptr %18, ptr %10, align 8
  call void @llvm.lifetime.start.p0(i64 8, ptr %11) #12
  call void @llvm.lifetime.start.p0(i64 8, ptr %12) #12
  call void @llvm.lifetime.start.p0(i64 8, ptr %13) #12
  call void @llvm.lifetime.start.p0(i64 8, ptr %14) #12
  call void @llvm.lifetime.start.p0(i64 8, ptr %15) #12
  call void @llvm.lifetime.start.p0(i64 4, ptr %16) #12
  store i32 0, ptr %16, align 4
  %19 = load ptr, ptr %10, align 8
  %20 = getelementptr inbounds nuw %struct._btatt_data_t, ptr %19, i32 0, i32 1
  %21 = load i8, ptr %20, align 8
  %22 = call zeroext i1 @bluetooth_gatt_has_no_parameter(i8 noundef zeroext %21)
  br i1 %22, label %23, label %24

23:                                               ; preds = %4
  store i32 -1, ptr %5, align 4
  store i32 1, ptr %17, align 4
  br label %83

24:                                               ; preds = %4
  %25 = load ptr, ptr %6, align 8
  %26 = load i32, ptr %16, align 4
  %27 = call signext i16 @tvb_get_int16(ptr noundef %25, i32 noundef %26, i32 noundef -2147483648)
  %28 = sext i16 %27 to i32
  %29 = sitofp i32 %28 to double
  %30 = fdiv double %29, 1.000000e+03
  store double %30, ptr %13, align 8
  %31 = load ptr, ptr %6, align 8
  %32 = load i32, ptr %16, align 4
  %33 = add i32 %32, 2
  %34 = call signext i16 @tvb_get_int16(ptr noundef %31, i32 noundef %33, i32 noundef -2147483648)
  %35 = sext i16 %34 to i32
  %36 = sitofp i32 %35 to double
  %37 = fdiv double %36, 1.000000e+03
  store double %37, ptr %14, align 8
  %38 = load ptr, ptr %6, align 8
  %39 = load i32, ptr %16, align 4
  %40 = add i32 %39, 4
  %41 = call signext i16 @tvb_get_int16(ptr noundef %38, i32 noundef %40, i32 noundef -2147483648)
  %42 = sext i16 %41 to i32
  %43 = sitofp i32 %42 to double
  %44 = fdiv double %43, 1.000000e+03
  store double %44, ptr %15, align 8
  %45 = load ptr, ptr %8, align 8
  %46 = load i32, ptr @hf_gatt_microbit_accelerometer_data, align 4
  %47 = load ptr, ptr %6, align 8
  %48 = load ptr, ptr %6, align 8
  %49 = call i32 @tvb_captured_length(ptr noundef %48)
  %50 = call ptr @proto_tree_add_item(ptr noundef %45, i32 noundef %46, ptr noundef %47, i32 noundef 0, i32 noundef %49, i32 noundef 0)
  store ptr %50, ptr %11, align 8
  %51 = load ptr, ptr %11, align 8
  %52 = load i32, ptr @ett_btgatt_microbit_accelerometer, align 4
  %53 = call ptr @proto_item_add_subtree(ptr noundef %51, i32 noundef %52)
  store ptr %53, ptr %12, align 8
  %54 = load ptr, ptr %11, align 8
  %55 = load double, ptr %13, align 8
  %56 = load double, ptr %14, align 8
  %57 = load double, ptr %15, align 8
  call void (ptr, ptr, ...) @proto_item_append_text(ptr noundef %54, ptr noundef @.str.3290, double noundef %55, double noundef %56, double noundef %57)
  %58 = load ptr, ptr %12, align 8
  %59 = load i32, ptr @hf_gatt_microbit_accelerometer_x, align 4
  %60 = load ptr, ptr %6, align 8
  %61 = load i32, ptr %16, align 4
  %62 = load double, ptr %13, align 8
  %63 = call ptr @proto_tree_add_double(ptr noundef %58, i32 noundef %59, ptr noundef %60, i32 noundef %61, i32 noundef 2, double noundef %62)
  %64 = load i32, ptr %16, align 4
  %65 = add i32 %64, 2
  store i32 %65, ptr %16, align 4
  %66 = load ptr, ptr %12, align 8
  %67 = load i32, ptr @hf_gatt_microbit_accelerometer_y, align 4
  %68 = load ptr, ptr %6, align 8
  %69 = load i32, ptr %16, align 4
  %70 = load double, ptr %14, align 8
  %71 = call ptr @proto_tree_add_double(ptr noundef %66, i32 noundef %67, ptr noundef %68, i32 noundef %69, i32 noundef 2, double noundef %70)
  %72 = load i32, ptr %16, align 4
  %73 = add i32 %72, 2
  store i32 %73, ptr %16, align 4
  %74 = load ptr, ptr %12, align 8
  %75 = load i32, ptr @hf_gatt_microbit_accelerometer_z, align 4
  %76 = load ptr, ptr %6, align 8
  %77 = load i32, ptr %16, align 4
  %78 = load double, ptr %15, align 8
  %79 = call ptr @proto_tree_add_double(ptr noundef %74, i32 noundef %75, ptr noundef %76, i32 noundef %77, i32 noundef 2, double noundef %78)
  %80 = load i32, ptr %16, align 4
  %81 = add i32 %80, 2
  store i32 %81, ptr %16, align 4
  %82 = load i32, ptr %16, align 4
  store i32 %82, ptr %5, align 4
  store i32 1, ptr %17, align 4
  br label %83

83:                                               ; preds = %24, %23
  call void @llvm.lifetime.end.p0(i64 4, ptr %16) #12
  call void @llvm.lifetime.end.p0(i64 8, ptr %15) #12
  call void @llvm.lifetime.end.p0(i64 8, ptr %14) #12
  call void @llvm.lifetime.end.p0(i64 8, ptr %13) #12
  call void @llvm.lifetime.end.p0(i64 8, ptr %12) #12
  call void @llvm.lifetime.end.p0(i64 8, ptr %11) #12
  call void @llvm.lifetime.end.p0(i64 8, ptr %10) #12
  %84 = load i32, ptr %5, align 4
  ret i32 %84
}