; Function Attrs: null_pointer_is_valid sspstrong uwtable
define internal range(i32 -1, 7) i32 @dissect_btgatt_microbit_accelerometer_data(ptr noundef %0, ptr readnone captures(none) %1, ptr noundef %2, ptr noundef readonly captures(none) %3) #1 {
  %5 = getelementptr inbounds nuw i8, ptr %3, i64 8
  %6 = load i8, ptr %5, align 8
  %.fr32 = freeze i8 %6
  %7 = and i8 %.fr32, -7
  %switch.selectcmp.i.i = icmp eq i8 %7, 8
  br i1 %switch.selectcmp.i.i, label %29, label %switch.early.test

switch.early.test:                                ; preds = %4
  switch i8 %.fr32, label %8 [
    i8 30, label %29
    i8 19, label %29
  ]

8:                                                ; preds = %switch.early.test
  %9 = tail call signext i16 @tvb_get_int16(ptr noundef %0, i32 noundef 0, i32 noundef -2147483648)
  %10 = sitofp i16 %9 to double
  %11 = fdiv double %10, 1.000000e+03
  %12 = tail call signext i16 @tvb_get_int16(ptr noundef %0, i32 noundef 2, i32 noundef -2147483648)
  %13 = sitofp i16 %12 to double
  %14 = fdiv double %13, 1.000000e+03
  %15 = tail call signext i16 @tvb_get_int16(ptr noundef %0, i32 noundef 4, i32 noundef -2147483648)
  %16 = sitofp i16 %15 to double
  %17 = fdiv double %16, 1.000000e+03
  %18 = load i32, ptr @hf_gatt_microbit_accelerometer_data, align 4
  %19 = tail call i32 @tvb_captured_length(ptr noundef %0)
  %20 = tail call ptr @proto_tree_add_item(ptr noundef %2, i32 noundef %18, ptr noundef %0, i32 noundef 0, i32 noundef %19, i32 noundef 0)
  %21 = load i32, ptr @ett_btgatt_microbit_accelerometer, align 4
  %22 = tail call ptr @proto_item_add_subtree(ptr noundef %20, i32 noundef %21)
  tail call void (ptr, ptr, ...) @proto_item_append_text(ptr noundef %20, ptr noundef nonnull @.str.3290, double noundef %11, double noundef %14, double noundef %17)
  %23 = load i32, ptr @hf_gatt_microbit_accelerometer_x, align 4
  %24 = tail call ptr @proto_tree_add_double(ptr noundef %22, i32 noundef %23, ptr noundef %0, i32 noundef 0, i32 noundef 2, double noundef %11)
  %25 = load i32, ptr @hf_gatt_microbit_accelerometer_y, align 4
  %26 = tail call ptr @proto_tree_add_double(ptr noundef %22, i32 noundef %25, ptr noundef %0, i32 noundef 2, i32 noundef 2, double noundef %14)
  %27 = load i32, ptr @hf_gatt_microbit_accelerometer_z, align 4
  %28 = tail call ptr @proto_tree_add_double(ptr noundef %22, i32 noundef %27, ptr noundef %0, i32 noundef 4, i32 noundef 2, double noundef %17)
  br label %29

29:                                               ; preds = %switch.early.test, %switch.early.test, %4, %8
  %.0 = phi i32 [ 6, %8 ], [ -1, %switch.early.test ], [ -1, %4 ], [ -1, %switch.early.test ]
  ret i32 %.0
}